(lp1
(lp2
(lp3
F700
aF1401
aF2102
aF2803
aF3504
aF4205
aa(lp4
I9
aI11
aI9
aI5
aI3
aI3
aaa(lp5
(lp6
F700
aF1401
aF2102
aF2803
aF3504
aF4205
aa(lp7
I10
aI7
aI3
aI4
aI0
aI1
aaa(lp8
(lp9
F700
aF1401
aF2102
aF2803
aF3504
aF4205
aa(lp10
I24
aI21
aI19
aI6
aI21
aI20
aaa(lp11
(lp12
F700
aF1401
aF2102
aF2803
aF3504
aF4205
aa(lp13
I12
aI15
aI10
aI11
aI25
aI6
aaa(lp14
(lp15
F700
aF1401
aF2102
aF2803
aF3504
aF4205
aa(lp16
I8
aI23
aI7
aI3
aI3
aI2
aaa(lp17
(lp18
F700
aF1401
aF2102
aF2803
aF3504
aF4205
aa(lp19
I12
aI7
aI10
aI10
aI10
aI7
aaa(lp20
(lp21
F700
aF1401
aF2102
aF2803
aF3504
aF4205
aa(lp22
I20
aI22
aI12
aI10
aI6
aI11
aaa(lp23
(lp24
F700
aF1401
aF2102
aF2803
aF3504
aF4205
aa(lp25
I11
aI6
aI16
aI8
aI5
aI5
aaa(lp26
(lp27
F700
aF1401
aF2102
aF2803
aF3504
aF4205
aa(lp28
I7
aI20
aI17
aI19
aI8
aI6
aaa(lp29
(lp30
F700
aF1401
aF2102
aF2803
aF3504
aF4205
aa(lp31
I13
aI9
aI3
aI8
aI3
aI2
aaa.